#include <math.h>
#include <stdio.h>
#include <stdlib.h>
#include <string.h>

int main()
{
	int n,tot=0,i,j,swap;
	int a[202];
	scanf("%d",&n);
	for (i=1;i<=n;i++){
		scanf("%d",&a[i]);
		tot+=a[i];
	}
	for (i=1;i<=n;i++){
		for (j=i+1;j<=n;j++){
			if (a[i]>a[j]) {
				swap=a[i];a[i]=a[j];a[j]=swap;
			}
		}
	}
	if ((a[1]+a[n])*n==tot*2) {
		printf("%d,%d",a[1],a[n]);
	}
	if ((a[1]+a[n])*n>tot*2) {
		printf("%d",a[n]);
	}
	if ((a[1]+a[n])*n<tot*2) {
		printf("%d",a[1]);
	}

	return 0;
}

