; ModuleID = '21/1991.c'
source_filename = "21/1991.c"
target datalayout = "e-m:e-p270:32:32-p271:32:32-p272:64:64-i64:64-f80:128-n8:16:32:64-S128"
target triple = "x86_64-pc-linux-gnu"

@.str = private unnamed_addr constant [3 x i8] c"%d\00", align 1
@.str.1 = private unnamed_addr constant [6 x i8] c"%d,%d\00", align 1

; Function Attrs: noinline nounwind uwtable
define dso_local i32 @main() #0 {
  %1 = alloca i32, align 4
  %2 = alloca i32, align 4
  %3 = alloca i32, align 4
  %4 = alloca i32, align 4
  %5 = alloca i32, align 4
  %6 = alloca i32, align 4
  %7 = alloca [202 x i32], align 16
  store i32 0, i32* %1, align 4
  store i32 0, i32* %3, align 4
  %8 = call i32 (i8*, ...) @__isoc99_scanf(i8* getelementptr inbounds ([3 x i8], [3 x i8]* @.str, i64 0, i64 0), i32* %2)
  store i32 1, i32* %4, align 4
  br label %9

9:                                                ; preds = %24, %0
  %10 = load i32, i32* %4, align 4
  %11 = load i32, i32* %2, align 4
  %12 = icmp sle i32 %10, %11
  br i1 %12, label %13, label %27

13:                                               ; preds = %9
  %14 = load i32, i32* %4, align 4
  %15 = sext i32 %14 to i64
  %16 = getelementptr inbounds [202 x i32], [202 x i32]* %7, i64 0, i64 %15
  %17 = call i32 (i8*, ...) @__isoc99_scanf(i8* getelementptr inbounds ([3 x i8], [3 x i8]* @.str, i64 0, i64 0), i32* %16)
  %18 = load i32, i32* %4, align 4
  %19 = sext i32 %18 to i64
  %20 = getelementptr inbounds [202 x i32], [202 x i32]* %7, i64 0, i64 %19
  %21 = load i32, i32* %20, align 4
  %22 = load i32, i32* %3, align 4
  %23 = add nsw i32 %22, %21
  store i32 %23, i32* %3, align 4
  br label %24

24:                                               ; preds = %13
  %25 = load i32, i32* %4, align 4
  %26 = add nsw i32 %25, 1
  store i32 %26, i32* %4, align 4
  br label %9

27:                                               ; preds = %9
  store i32 1, i32* %4, align 4
  br label %28

28:                                               ; preds = %70, %27
  %29 = load i32, i32* %4, align 4
  %30 = load i32, i32* %2, align 4
  %31 = icmp sle i32 %29, %30
  br i1 %31, label %32, label %73

32:                                               ; preds = %28
  %33 = load i32, i32* %4, align 4
  %34 = add nsw i32 %33, 1
  store i32 %34, i32* %5, align 4
  br label %35

35:                                               ; preds = %66, %32
  %36 = load i32, i32* %5, align 4
  %37 = load i32, i32* %2, align 4
  %38 = icmp sle i32 %36, %37
  br i1 %38, label %39, label %69

39:                                               ; preds = %35
  %40 = load i32, i32* %4, align 4
  %41 = sext i32 %40 to i64
  %42 = getelementptr inbounds [202 x i32], [202 x i32]* %7, i64 0, i64 %41
  %43 = load i32, i32* %42, align 4
  %44 = load i32, i32* %5, align 4
  %45 = sext i32 %44 to i64
  %46 = getelementptr inbounds [202 x i32], [202 x i32]* %7, i64 0, i64 %45
  %47 = load i32, i32* %46, align 4
  %48 = icmp sgt i32 %43, %47
  br i1 %48, label %49, label %65

49:                                               ; preds = %39
  %50 = load i32, i32* %4, align 4
  %51 = sext i32 %50 to i64
  %52 = getelementptr inbounds [202 x i32], [202 x i32]* %7, i64 0, i64 %51
  %53 = load i32, i32* %52, align 4
  store i32 %53, i32* %6, align 4
  %54 = load i32, i32* %5, align 4
  %55 = sext i32 %54 to i64
  %56 = getelementptr inbounds [202 x i32], [202 x i32]* %7, i64 0, i64 %55
  %57 = load i32, i32* %56, align 4
  %58 = load i32, i32* %4, align 4
  %59 = sext i32 %58 to i64
  %60 = getelementptr inbounds [202 x i32], [202 x i32]* %7, i64 0, i64 %59
  store i32 %57, i32* %60, align 4
  %61 = load i32, i32* %6, align 4
  %62 = load i32, i32* %5, align 4
  %63 = sext i32 %62 to i64
  %64 = getelementptr inbounds [202 x i32], [202 x i32]* %7, i64 0, i64 %63
  store i32 %61, i32* %64, align 4
  br label %65

65:                                               ; preds = %49, %39
  br label %66

66:                                               ; preds = %65
  %67 = load i32, i32* %5, align 4
  %68 = add nsw i32 %67, 1
  store i32 %68, i32* %5, align 4
  br label %35

69:                                               ; preds = %35
  br label %70

70:                                               ; preds = %69
  %71 = load i32, i32* %4, align 4
  %72 = add nsw i32 %71, 1
  store i32 %72, i32* %4, align 4
  br label %28

73:                                               ; preds = %28
  %74 = getelementptr inbounds [202 x i32], [202 x i32]* %7, i64 0, i64 1
  %75 = load i32, i32* %74, align 4
  %76 = load i32, i32* %2, align 4
  %77 = sext i32 %76 to i64
  %78 = getelementptr inbounds [202 x i32], [202 x i32]* %7, i64 0, i64 %77
  %79 = load i32, i32* %78, align 4
  %80 = add nsw i32 %75, %79
  %81 = load i32, i32* %2, align 4
  %82 = mul nsw i32 %80, %81
  %83 = load i32, i32* %3, align 4
  %84 = mul nsw i32 %83, 2
  %85 = icmp eq i32 %82, %84
  br i1 %85, label %86, label %94

86:                                               ; preds = %73
  %87 = getelementptr inbounds [202 x i32], [202 x i32]* %7, i64 0, i64 1
  %88 = load i32, i32* %87, align 4
  %89 = load i32, i32* %2, align 4
  %90 = sext i32 %89 to i64
  %91 = getelementptr inbounds [202 x i32], [202 x i32]* %7, i64 0, i64 %90
  %92 = load i32, i32* %91, align 4
  %93 = call i32 (i8*, ...) @printf(i8* getelementptr inbounds ([6 x i8], [6 x i8]* @.str.1, i64 0, i64 0), i32 %88, i32 %92)
  br label %94

94:                                               ; preds = %86, %73
  %95 = getelementptr inbounds [202 x i32], [202 x i32]* %7, i64 0, i64 1
  %96 = load i32, i32* %95, align 4
  %97 = load i32, i32* %2, align 4
  %98 = sext i32 %97 to i64
  %99 = getelementptr inbounds [202 x i32], [202 x i32]* %7, i64 0, i64 %98
  %100 = load i32, i32* %99, align 4
  %101 = add nsw i32 %96, %100
  %102 = load i32, i32* %2, align 4
  %103 = mul nsw i32 %101, %102
  %104 = load i32, i32* %3, align 4
  %105 = mul nsw i32 %104, 2
  %106 = icmp sgt i32 %103, %105
  br i1 %106, label %107, label %113

107:                                              ; preds = %94
  %108 = load i32, i32* %2, align 4
  %109 = sext i32 %108 to i64
  %110 = getelementptr inbounds [202 x i32], [202 x i32]* %7, i64 0, i64 %109
  %111 = load i32, i32* %110, align 4
  %112 = call i32 (i8*, ...) @printf(i8* getelementptr inbounds ([3 x i8], [3 x i8]* @.str, i64 0, i64 0), i32 %111)
  br label %113

113:                                              ; preds = %107, %94
  %114 = getelementptr inbounds [202 x i32], [202 x i32]* %7, i64 0, i64 1
  %115 = load i32, i32* %114, align 4
  %116 = load i32, i32* %2, align 4
  %117 = sext i32 %116 to i64
  %118 = getelementptr inbounds [202 x i32], [202 x i32]* %7, i64 0, i64 %117
  %119 = load i32, i32* %118, align 4
  %120 = add nsw i32 %115, %119
  %121 = load i32, i32* %2, align 4
  %122 = mul nsw i32 %120, %121
  %123 = load i32, i32* %3, align 4
  %124 = mul nsw i32 %123, 2
  %125 = icmp slt i32 %122, %124
  br i1 %125, label %126, label %130

126:                                              ; preds = %113
  %127 = getelementptr inbounds [202 x i32], [202 x i32]* %7, i64 0, i64 1
  %128 = load i32, i32* %127, align 4
  %129 = call i32 (i8*, ...) @printf(i8* getelementptr inbounds ([3 x i8], [3 x i8]* @.str, i64 0, i64 0), i32 %128)
  br label %130

130:                                              ; preds = %126, %113
  ret i32 0
}

declare dso_local i32 @__isoc99_scanf(i8*, ...) #1

declare dso_local i32 @printf(i8*, ...) #1


!llvm.module.flags = !{!0}
!llvm.ident = !{!1}

!0 = !{i32 1, !"wchar_size", i32 4}
!1 = !{!"clang version 10.0.0-4ubuntu1 "}
